; Function Attrs: mustprogress uwtable
define hidden void @_ZN4cvc58internal6theory2fp6helper13buildConjunctERKSt6vectorINS0_12NodeTemplateILb0EEESaIS6_EE(ptr noalias sret(%"class.cvc5::internal::NodeTemplate") align 8 %agg.result, ptr nocapture noundef nonnull readonly align 8 dereferenceable(24) %assumptions) local_unnamed_addr #3 personality ptr @__gxx_personality_v0 {
entry:
  %ref.tmp = alloca i8, align 1
  %conjunction = alloca %"class.cvc5::internal::NodeBuilder", align 8
  %agg.tmp = alloca %"class.cvc5::internal::NodeTemplate.65", align 8
  %_M_finish.i = getelementptr inbounds i8, ptr %assumptions, i64 8
  %0 = load ptr, ptr %_M_finish.i, align 8
  %1 = load ptr, ptr %assumptions, align 8
  %sub.ptr.lhs.cast.i = ptrtoint ptr %0 to i64
  %sub.ptr.rhs.cast.i = ptrtoint ptr %1 to i64
  %sub.ptr.sub.i = sub i64 %sub.ptr.lhs.cast.i, %sub.ptr.rhs.cast.i
  %sub.ptr.div.i = ashr exact i64 %sub.ptr.sub.i, 3
  switch i64 %sub.ptr.div.i, label %if.else6 [
    i64 0, label %if.then
    i64 1, label %if.then4
  ]

if.then:                                          ; preds = %entry
  %call1 = tail call noundef ptr @_ZN4cvc58internal11NodeManager9currentNMEv()
  store i8 1, ptr %ref.tmp, align 1
  call void @_ZN4cvc58internal11NodeManager7mkConstIbEENS0_12NodeTemplateILb1EEERKT_(ptr sret(%"class.cvc5::internal::NodeTemplate") align 8 %agg.result, ptr noundef nonnull align 8 dereferenceable(3360) %call1, ptr noundef nonnull align 1 dereferenceable(1) %ref.tmp)
  br label %return

if.then4:                                         ; preds = %entry
  %2 = load ptr, ptr %1, align 8
  store ptr %2, ptr %agg.result, align 8
  %bf.load.i.i = load i64, ptr %2, align 8
  %bf.lshr.i.i = lshr i64 %bf.load.i.i, 40
  %3 = trunc i64 %bf.lshr.i.i to i32
  %bf.cast.i.i = and i32 %3, 1048575
  %cmp.i.i = icmp ult i32 %bf.cast.i.i, 1048574
  br i1 %cmp.i.i, label %if.then.i.i, label %if.else.i.i

if.then.i.i:                                      ; preds = %if.then4
  %bf.value.i.i = add i64 %bf.load.i.i, 1099511627776
  %bf.shl.i.i = and i64 %bf.value.i.i, 1152920405095219200
  %bf.clear7.i.i = and i64 %bf.load.i.i, -1152920405095219201
  %bf.set.i.i = or disjoint i64 %bf.shl.i.i, %bf.clear7.i.i
  store i64 %bf.set.i.i, ptr %2, align 8
  br label %return

if.else.i.i:                                      ; preds = %if.then4
  %cmp12.i.i = icmp eq i32 %bf.cast.i.i, 1048574
  br i1 %cmp12.i.i, label %if.then13.i.i, label %return

if.then13.i.i:                                    ; preds = %if.else.i.i
  %bf.set23.i.i = or i64 %bf.load.i.i, 1152920405095219200
  store i64 %bf.set23.i.i, ptr %2, align 8
  tail call void @_ZN4cvc58internal4expr9NodeValue20markRefCountMaxedOutEv(ptr noundef nonnull align 8 dereferenceable(16) %2)
  br label %return

if.else6:                                         ; preds = %entry
  call void @_ZN4cvc58internal11NodeBuilderC1ENS0_4kind6Kind_tE(ptr noundef nonnull align 8 dereferenceable(116) %conjunction, i32 noundef 19)
  %4 = load ptr, ptr %assumptions, align 8
  %5 = load ptr, ptr %_M_finish.i, align 8
  %cmp.i.not14 = icmp eq ptr %4, %5
  br i1 %cmp.i.not14, label %for.end, label %for.body

for.body:                                         ; preds = %if.else6, %invoke.cont14
  %it.sroa.0.015 = phi ptr [ %incdec.ptr.i, %invoke.cont14 ], [ %4, %if.else6 ]
  %6 = load ptr, ptr %it.sroa.0.015, align 8
  store ptr %6, ptr %agg.tmp, align 8
  %call15 = invoke noundef nonnull align 8 dereferenceable(116) ptr @_ZN4cvc58internal11NodeBuilderlsENS0_12NodeTemplateILb0EEE(ptr noundef nonnull align 8 dereferenceable(116) %conjunction, ptr noundef nonnull %agg.tmp)
          to label %invoke.cont14 unwind label %lpad13

invoke.cont14:                                    ; preds = %for.body
  %incdec.ptr.i = getelementptr inbounds i8, ptr %it.sroa.0.015, i64 8
  %7 = load ptr, ptr %_M_finish.i, align 8
  %cmp.i.not = icmp eq ptr %incdec.ptr.i, %7
  br i1 %cmp.i.not, label %for.end, label %for.body, !llvm.loop !4

lpad:                                             ; preds = %for.end
  %8 = landingpad { ptr, i32 }
          cleanup
  br label %ehcleanup

lpad13:                                           ; preds = %for.body
  %9 = landingpad { ptr, i32 }
          cleanup
  br label %ehcleanup

for.end:                                          ; preds = %invoke.cont14, %if.else6
  invoke void @_ZN4cvc58internal11NodeBuildercvNS0_12NodeTemplateILb1EEEEv(ptr sret(%"class.cvc5::internal::NodeTemplate") align 8 %agg.result, ptr noundef nonnull align 8 dereferenceable(116) %conjunction)
          to label %invoke.cont17 unwind label %lpad

invoke.cont17:                                    ; preds = %for.end
  call void @_ZN4cvc58internal11NodeBuilderD1Ev(ptr noundef nonnull align 8 dereferenceable(116) %conjunction) #20
  br label %return

ehcleanup:                                        ; preds = %lpad13, %lpad
  %.pn = phi { ptr, i32 } [ %9, %lpad13 ], [ %8, %lpad ]
  call void @_ZN4cvc58internal11NodeBuilderD1Ev(ptr noundef nonnull align 8 dereferenceable(116) %conjunction) #20
  resume { ptr, i32 } %.pn

return:                                           ; preds = %if.then13.i.i, %if.else.i.i, %if.then.i.i, %invoke.cont17, %if.then
  ret void
}